target datalayout = "e-m:e-p270:32:32-p271:32:32-p272:64:64-i64:64-i128:128-f80:128-n8:16:32:64-S128"
target triple = "x86_64-pc-linux-gnu"

@__cpu_model = external dso_local global { i32, i32, i32, [1 x i32] }

; Function Attrs: nounwind uwtable
define internal i32 @zend_cpu_supports_ssse3() #6 {
  call void @__cpu_indicator_init()
  %1 = load i32, ptr getelementptr inbounds ({ i32, i32, i32, [1 x i32] }, ptr @__cpu_model, i32 0, i32 3, i32 0), align 4
  %2 = and i32 %1, 64
  %3 = icmp eq i32 %2, 64
  %4 = and i1 true, %3
  %5 = zext i1 %4 to i32
  ret i32 %5
}

; Function Attrs: nounwind uwtable
define internal i32 @zend_cpu_supports_avx2() #6 {
  call void @__cpu_indicator_init()
  %1 = load i32, ptr getelementptr inbounds ({ i32, i32, i32, [1 x i32] }, ptr @__cpu_model, i32 0, i32 3, i32 0), align 4
  %2 = and i32 %1, 1024
  %3 = icmp eq i32 %2, 1024
  %4 = and i1 true, %3
  %5 = zext i1 %4 to i32
  ret i32 %5
}

; Function Attrs: nounwind uwtable
define internal i32 @zend_cpu_supports_avx512() #6 {
  call void @__cpu_indicator_init()
  %1 = load i32, ptr getelementptr inbounds ({ i32, i32, i32, [1 x i32] }, ptr @__cpu_model, i32 0, i32 3, i32 0), align 4
  %2 = and i32 %1, 32768
  %3 = icmp eq i32 %2, 32768
  %4 = and i1 true, %3
  br i1 %4, label %5, label %25

5:                                                ; preds = %0
  %6 = load i32, ptr getelementptr inbounds ({ i32, i32, i32, [1 x i32] }, ptr @__cpu_model, i32 0, i32 3, i32 0), align 4
  %7 = and i32 %6, 4194304
  %8 = icmp eq i32 %7, 4194304
  %9 = and i1 true, %8
  br i1 %9, label %10, label %25

10:                                               ; preds = %5
  %11 = load i32, ptr getelementptr inbounds ({ i32, i32, i32, [1 x i32] }, ptr @__cpu_model, i32 0, i32 3, i32 0), align 4
  %12 = and i32 %11, 8388608
  %13 = icmp eq i32 %12, 8388608
  %14 = and i1 true, %13
  br i1 %14, label %15, label %25

15:                                               ; preds = %10
  %16 = load i32, ptr getelementptr inbounds ({ i32, i32, i32, [1 x i32] }, ptr @__cpu_model, i32 0, i32 3, i32 0), align 4
  %17 = and i32 %16, 2097152
  %18 = icmp eq i32 %17, 2097152
  %19 = and i1 true, %18
  br i1 %19, label %20, label %25

20:                                               ; preds = %15
  %21 = load i32, ptr getelementptr inbounds ({ i32, i32, i32, [1 x i32] }, ptr @__cpu_model, i32 0, i32 3, i32 0), align 4
  %22 = and i32 %21, 1048576
  %23 = icmp eq i32 %22, 1048576
  %24 = and i1 true, %23
  br label %25

25:                                               ; preds = %20, %15, %10, %5, %0
  %26 = phi i1 [ false, %15 ], [ false, %10 ], [ false, %5 ], [ false, %0 ], [ %24, %20 ]
  %27 = zext i1 %26 to i32
  ret i32 %27
}

; Function Attrs: nounwind uwtable
define internal i32 @zend_cpu_supports_avx512_vbmi() #6 {
  call void @__cpu_indicator_init()
  %1 = call i32 @zend_cpu_supports_avx512()
  %2 = icmp ne i32 %1, 0
  br i1 %2, label %3, label %8

3:                                                ; preds = %0
  %4 = load i32, ptr getelementptr inbounds ({ i32, i32, i32, [1 x i32] }, ptr @__cpu_model, i32 0, i32 3, i32 0), align 4
  %5 = and i32 %4, 67108864
  %6 = icmp eq i32 %5, 67108864
  %7 = and i1 true, %6
  br label %8

8:                                                ; preds = %3, %0
  %9 = phi i1 [ false, %0 ], [ %7, %3 ]
  %10 = zext i1 %9 to i32
  ret i32 %10
}

; Function Attrs: disable_sanitizer_instrumentation nounwind uwtable
define internal ptr @resolve_base64_decode() #0 {
  %1 = alloca ptr, align 8
  %2 = call i32 @zend_cpu_supports_avx512_vbmi()
  %3 = icmp ne i32 %2, 0
  br i1 %3, label %4, label %5

4:                                                ; preds = %0
  store ptr @php_base64_decode_ex_avx512_vbmi, ptr %1, align 8
  br label %21

5:                                                ; preds = %0
  %6 = call i32 @zend_cpu_supports_avx512()
  %7 = icmp ne i32 %6, 0
  br i1 %7, label %8, label %9

8:                                                ; preds = %5
  store ptr @php_base64_decode_ex_avx512, ptr %1, align 8
  br label %21

9:                                                ; preds = %5
  %10 = call i32 @zend_cpu_supports_avx2()
  %11 = icmp ne i32 %10, 0
  br i1 %11, label %12, label %13

12:                                               ; preds = %9
  store ptr @php_base64_decode_ex_avx2, ptr %1, align 8
  br label %21

13:                                               ; preds = %9
  %14 = call i32 @zend_cpu_supports_ssse3()
  %15 = icmp ne i32 %14, 0
  br i1 %15, label %16, label %17

16:                                               ; preds = %13
  store ptr @php_base64_decode_ex_ssse3, ptr %1, align 8
  br label %21

17:                                               ; preds = %13
  br label %18

18:                                               ; preds = %17
  br label %19

19:                                               ; preds = %18
  br label %20

20:                                               ; preds = %19
  store ptr @php_base64_decode_ex_default, ptr %1, align 8
  br label %21

21:                                               ; preds = %20, %16, %12, %8, %4
  %22 = load ptr, ptr %1, align 8
  ret ptr %22
}